target datalayout = "e-m:e-p270:32:32-p271:32:32-p272:64:64-i64:64-i128:128-f80:128-n8:16:32:64-S128"
target triple = "x86_64-pc-linux-gnu"

%"struct.Yosys::RTLIL::Const" = type { i16, i8, %union.anon }
%union.anon = type { %"class.std::__cxx11::basic_string" }
%"class.std::__cxx11::basic_string" = type { %"struct.std::__cxx11::basic_string<char>::_Alloc_hider", i64, %union.anon.90 }
%"struct.std::__cxx11::basic_string<char>::_Alloc_hider" = type { ptr }
%union.anon.90 = type { i64, [8 x i8] }
%"struct.std::_Rb_tree_header" = type { %"struct.std::_Rb_tree_node_base", i64 }
%"struct.std::_Rb_tree_node_base" = type { i32, ptr, ptr, ptr }
%"class.Yosys::MemContents" = type { i32, i32, %"struct.Yosys::RTLIL::Const", %"class.std::map.232" }
%"class.std::map.232" = type { %"class.std::_Rb_tree.233" }
%"class.std::_Rb_tree.233" = type { %"struct.std::_Rb_tree<unsigned int, std::pair<const unsigned int, Yosys::RTLIL::Const>, std::_Select1st<std::pair<const unsigned int, Yosys::RTLIL::Const>>, std::less<unsigned int>>::_Rb_tree_impl" }
%"struct.std::_Rb_tree<unsigned int, std::pair<const unsigned int, Yosys::RTLIL::Const>, std::_Select1st<std::pair<const unsigned int, Yosys::RTLIL::Const>>, std::less<unsigned int>>::_Rb_tree_impl" = type { [8 x i8], %"struct.std::_Rb_tree_header" }
%"struct.std::_Rb_tree_iterator.241" = type { ptr }
%"struct.std::pair.239" = type { i32, %"struct.Yosys::RTLIL::Const" }
%"struct.std::_Rb_tree_const_iterator.238" = type { ptr }
%"struct.std::_Rb_tree_node.350" = type { %"struct.std::_Rb_tree_node_base", %"struct.__gnu_cxx::__aligned_membuf.351" }
%"struct.__gnu_cxx::__aligned_membuf.351" = type { [48 x i8] }

; Function Attrs: mustprogress nounwind uwtable
define linkonce_odr noundef ptr @_ZN9__gnu_cxx16__aligned_membufISt4pairIKjN5Yosys5RTLIL5ConstEEE7_M_addrEv(ptr noundef nonnull align 8 dereferenceable(48) %0) #8 comdat align 2 {
  %2 = alloca ptr, align 8
  store ptr %0, ptr %2, align 8, !tbaa !1123
  %3 = load ptr, ptr %2, align 8
  %4 = getelementptr inbounds nuw %"struct.__gnu_cxx::__aligned_membuf.351", ptr %3, i32 0, i32 0
  ret ptr %4
}

; Function Attrs: mustprogress nounwind uwtable
define linkonce_odr noundef ptr @_ZN9__gnu_cxx16__aligned_membufISt4pairIKjN5Yosys5RTLIL5ConstEEE6_M_ptrEv(ptr noundef nonnull align 8 dereferenceable(48) %0) #8 comdat align 2 {
  %2 = alloca ptr, align 8
  store ptr %0, ptr %2, align 8, !tbaa !1123
  %3 = load ptr, ptr %2, align 8
  %4 = call noundef ptr @_ZN9__gnu_cxx16__aligned_membufISt4pairIKjN5Yosys5RTLIL5ConstEEE7_M_addrEv(ptr noundef nonnull align 8 dereferenceable(48) %3) #3
  ret ptr %4
}

; Function Attrs: mustprogress nounwind uwtable
define linkonce_odr noundef ptr @_ZNSt13_Rb_tree_nodeISt4pairIKjN5Yosys5RTLIL5ConstEEE9_M_valptrEv(ptr noundef nonnull align 8 dereferenceable(80) %0) #8 comdat align 2 {
  %2 = alloca ptr, align 8
  store ptr %0, ptr %2, align 8, !tbaa !1118
  %3 = load ptr, ptr %2, align 8
  %4 = getelementptr inbounds nuw %"struct.std::_Rb_tree_node.350", ptr %3, i32 0, i32 1
  %5 = call noundef ptr @_ZN9__gnu_cxx16__aligned_membufISt4pairIKjN5Yosys5RTLIL5ConstEEE6_M_ptrEv(ptr noundef nonnull align 8 dereferenceable(48) %4) #3
  ret ptr %5
}

; Function Attrs: mustprogress nounwind uwtable
define linkonce_odr void @_ZNSt23_Rb_tree_const_iteratorISt4pairIKjN5Yosys5RTLIL5ConstEEEC2EPKSt18_Rb_tree_node_base(ptr noundef nonnull align 8 dereferenceable(8) %0, ptr noundef %1) unnamed_addr #8 comdat align 2 {
  %3 = alloca ptr, align 8
  %4 = alloca ptr, align 8
  store ptr %0, ptr %3, align 8, !tbaa !508
  store ptr %1, ptr %4, align 8, !tbaa !210
  %5 = load ptr, ptr %3, align 8
  %6 = getelementptr inbounds nuw %"struct.std::_Rb_tree_const_iterator.238", ptr %5, i32 0, i32 0
  %7 = load ptr, ptr %4, align 8, !tbaa !210
  store ptr %7, ptr %6, align 8, !tbaa !510
  ret void
}

; Function Attrs: mustprogress nounwind uwtable
define linkonce_odr noundef ptr @_ZNKSt17_Rb_tree_iteratorISt4pairIKjN5Yosys5RTLIL5ConstEEEptEv(ptr noundef nonnull align 8 dereferenceable(8) %0) #8 comdat align 2 {
  %2 = alloca ptr, align 8
  store ptr %0, ptr %2, align 8, !tbaa !513
  %3 = load ptr, ptr %2, align 8
  %4 = getelementptr inbounds nuw %"struct.std::_Rb_tree_iterator.241", ptr %3, i32 0, i32 0
  %5 = load ptr, ptr %4, align 8, !tbaa !515
  %6 = call noundef ptr @_ZNSt13_Rb_tree_nodeISt4pairIKjN5Yosys5RTLIL5ConstEEE9_M_valptrEv(ptr noundef nonnull align 8 dereferenceable(80) %5)
  ret ptr %6
}

; Function Attrs: mustprogress uwtable
define linkonce_odr noundef i32 @_ZNK5Yosys11MemContents11_range_sizeESt17_Rb_tree_iteratorISt4pairIKjNS_5RTLIL5ConstEEE(ptr noundef nonnull align 8 dereferenceable(96) %0, ptr %1) #4 comdat align 2 {
  %3 = alloca %"struct.std::_Rb_tree_iterator.241", align 8
  %4 = alloca ptr, align 8
  %5 = getelementptr inbounds nuw %"struct.std::_Rb_tree_iterator.241", ptr %3, i32 0, i32 0
  store ptr %1, ptr %5, align 8
  store ptr %0, ptr %4, align 8, !tbaa !484
  %6 = load ptr, ptr %4, align 8
  %7 = call noundef ptr @_ZNKSt17_Rb_tree_iteratorISt4pairIKjN5Yosys5RTLIL5ConstEEEptEv(ptr noundef nonnull align 8 dereferenceable(8) %3) #3
  %8 = getelementptr inbounds nuw %"struct.std::pair.239", ptr %7, i32 0, i32 1
  %9 = call noundef i32 @_ZNK5Yosys5RTLIL5Const4sizeEv(ptr noundef nonnull align 8 dereferenceable(40) %8)
  %10 = getelementptr inbounds nuw %"class.Yosys::MemContents", ptr %6, i32 0, i32 1
  %11 = load i32, ptr %10, align 4, !tbaa !486
  %12 = sdiv i32 %9, %11
  ret i32 %12
}

; Function Attrs: mustprogress nounwind uwtable
define linkonce_odr ptr @_ZNKSt8_Rb_treeIjSt4pairIKjN5Yosys5RTLIL5ConstEESt10_Select1stIS5_ESt4lessIjESaIS5_EE3endEv(ptr noundef nonnull align 8 dereferenceable(48) %0) #8 comdat align 2 {
  %2 = alloca %"struct.std::_Rb_tree_const_iterator.238", align 8
  %3 = alloca ptr, align 8
  store ptr %0, ptr %3, align 8, !tbaa !1108
  %4 = load ptr, ptr %3, align 8
  %5 = getelementptr inbounds nuw %"class.std::_Rb_tree.233", ptr %4, i32 0, i32 0
  %6 = getelementptr inbounds i8, ptr %5, i64 8
  %7 = getelementptr inbounds nuw %"struct.std::_Rb_tree_header", ptr %6, i32 0, i32 0
  call void @_ZNSt23_Rb_tree_const_iteratorISt4pairIKjN5Yosys5RTLIL5ConstEEEC2EPKSt18_Rb_tree_node_base(ptr noundef nonnull align 8 dereferenceable(8) %2, ptr noundef %7) #3
  %8 = getelementptr inbounds nuw %"struct.std::_Rb_tree_const_iterator.238", ptr %2, i32 0, i32 0
  %9 = load ptr, ptr %8, align 8
  ret ptr %9
}

; Function Attrs: mustprogress nounwind uwtable
define linkonce_odr noundef i32 @_ZNK5Yosys11MemContents12_range_beginESt17_Rb_tree_iteratorISt4pairIKjNS_5RTLIL5ConstEEE(ptr noundef nonnull align 8 dereferenceable(96) %0, ptr %1) #8 comdat align 2 {
  %3 = alloca %"struct.std::_Rb_tree_iterator.241", align 8
  %4 = alloca ptr, align 8
  %5 = getelementptr inbounds nuw %"struct.std::_Rb_tree_iterator.241", ptr %3, i32 0, i32 0
  store ptr %1, ptr %5, align 8
  store ptr %0, ptr %4, align 8, !tbaa !484
  %6 = call noundef ptr @_ZNKSt17_Rb_tree_iteratorISt4pairIKjN5Yosys5RTLIL5ConstEEEptEv(ptr noundef nonnull align 8 dereferenceable(8) %3) #3
  %7 = getelementptr inbounds nuw %"struct.std::pair.239", ptr %6, i32 0, i32 0
  %8 = load i32, ptr %7, align 8, !tbaa !504
  ret i32 %8
}

; Function Attrs: mustprogress uwtable
define linkonce_odr noundef i32 @_ZNK5Yosys11MemContents10_range_endESt17_Rb_tree_iteratorISt4pairIKjNS_5RTLIL5ConstEEE(ptr noundef nonnull align 8 dereferenceable(96) %0, ptr %1) #4 comdat align 2 {
  %3 = alloca %"struct.std::_Rb_tree_iterator.241", align 8
  %4 = alloca ptr, align 8
  %5 = alloca %"struct.std::_Rb_tree_iterator.241", align 8
  %6 = alloca %"struct.std::_Rb_tree_iterator.241", align 8
  %7 = getelementptr inbounds nuw %"struct.std::_Rb_tree_iterator.241", ptr %3, i32 0, i32 0
  store ptr %1, ptr %7, align 8
  store ptr %0, ptr %4, align 8, !tbaa !484
  %8 = load ptr, ptr %4, align 8
  call void @llvm.memcpy.p0.p0.i64(ptr align 8 %5, ptr align 8 %3, i64 8, i1 false), !tbaa.struct !209
  %9 = getelementptr inbounds nuw %"struct.std::_Rb_tree_iterator.241", ptr %5, i32 0, i32 0
  %10 = load ptr, ptr %9, align 8
  %11 = call noundef i32 @_ZNK5Yosys11MemContents12_range_beginESt17_Rb_tree_iteratorISt4pairIKjNS_5RTLIL5ConstEEE(ptr noundef nonnull align 8 dereferenceable(96) %8, ptr %10)
  call void @llvm.memcpy.p0.p0.i64(ptr align 8 %6, ptr align 8 %3, i64 8, i1 false), !tbaa.struct !209
  %12 = getelementptr inbounds nuw %"struct.std::_Rb_tree_iterator.241", ptr %6, i32 0, i32 0
  %13 = load ptr, ptr %12, align 8
  %14 = call noundef i32 @_ZNK5Yosys11MemContents11_range_sizeESt17_Rb_tree_iteratorISt4pairIKjNS_5RTLIL5ConstEEE(ptr noundef nonnull align 8 dereferenceable(96) %8, ptr %13)
  %15 = add i32 %11, %14
  ret i32 %15
}

; Function Attrs: mustprogress nounwind uwtable
define linkonce_odr noundef zeroext i1 @_ZSteqRKSt23_Rb_tree_const_iteratorISt4pairIKjN5Yosys5RTLIL5ConstEEES8_(ptr noundef nonnull align 8 dereferenceable(8) %0, ptr noundef nonnull align 8 dereferenceable(8) %1) #8 comdat {
  %3 = alloca ptr, align 8
  %4 = alloca ptr, align 8
  store ptr %0, ptr %3, align 8, !tbaa !508
  store ptr %1, ptr %4, align 8, !tbaa !508
  %5 = load ptr, ptr %3, align 8, !tbaa !508
  %6 = getelementptr inbounds nuw %"struct.std::_Rb_tree_const_iterator.238", ptr %5, i32 0, i32 0
  %7 = load ptr, ptr %6, align 8, !tbaa !510
  %8 = load ptr, ptr %4, align 8, !tbaa !508
  %9 = getelementptr inbounds nuw %"struct.std::_Rb_tree_const_iterator.238", ptr %8, i32 0, i32 0
  %10 = load ptr, ptr %9, align 8, !tbaa !510
  %11 = icmp eq ptr %7, %10
  ret i1 %11
}

; Function Attrs: mustprogress nounwind uwtable
define linkonce_odr ptr @_ZNKSt3mapIjN5Yosys5RTLIL5ConstESt4lessIjESaISt4pairIKjS2_EEE3endEv(ptr noundef nonnull align 8 dereferenceable(48) %0) #8 comdat align 2 {
  %2 = alloca %"struct.std::_Rb_tree_const_iterator.238", align 8
  %3 = alloca ptr, align 8
  store ptr %0, ptr %3, align 8, !tbaa !506
  %4 = load ptr, ptr %3, align 8
  %5 = getelementptr inbounds nuw %"class.std::map.232", ptr %4, i32 0, i32 0
  %6 = call ptr @_ZNKSt8_Rb_treeIjSt4pairIKjN5Yosys5RTLIL5ConstEESt10_Select1stIS5_ESt4lessIjESaIS5_EE3endEv(ptr noundef nonnull align 8 dereferenceable(48) %5) #3
  %7 = getelementptr inbounds nuw %"struct.std::_Rb_tree_const_iterator.238", ptr %2, i32 0, i32 0
  store ptr %6, ptr %7, align 8
  %8 = getelementptr inbounds nuw %"struct.std::_Rb_tree_const_iterator.238", ptr %2, i32 0, i32 0
  %9 = load ptr, ptr %8, align 8
  ret ptr %9
}

; Function Attrs: mustprogress nounwind uwtable
define linkonce_odr void @_ZNSt23_Rb_tree_const_iteratorISt4pairIKjN5Yosys5RTLIL5ConstEEEC2ERKSt17_Rb_tree_iteratorIS5_E(ptr noundef nonnull align 8 dereferenceable(8) %0, ptr noundef nonnull align 8 dereferenceable(8) %1) unnamed_addr #8 comdat align 2 {
  %3 = alloca ptr, align 8
  %4 = alloca ptr, align 8
  store ptr %0, ptr %3, align 8, !tbaa !508
  store ptr %1, ptr %4, align 8, !tbaa !513
  %5 = load ptr, ptr %3, align 8
  %6 = getelementptr inbounds nuw %"struct.std::_Rb_tree_const_iterator.238", ptr %5, i32 0, i32 0
  %7 = load ptr, ptr %4, align 8, !tbaa !513
  %8 = getelementptr inbounds nuw %"struct.std::_Rb_tree_iterator.241", ptr %7, i32 0, i32 0
  %9 = load ptr, ptr %8, align 8, !tbaa !515
  store ptr %9, ptr %6, align 8, !tbaa !510
  ret void
}

; Function Attrs: mustprogress uwtable
define noundef zeroext i1 @_ZNK5Yosys11MemContents15_range_overlapsESt17_Rb_tree_iteratorISt4pairIKjNS_5RTLIL5ConstEEEjj(ptr noundef nonnull align 8 dereferenceable(96) %0, ptr %1, i32 noundef %2, i32 noundef %3) #4 align 2 {
  %5 = alloca i1, align 1
  %6 = alloca %"struct.std::_Rb_tree_iterator.241", align 8
  %7 = alloca ptr, align 8
  %8 = alloca i32, align 4
  %9 = alloca i32, align 4
  %10 = alloca %"struct.std::_Rb_tree_const_iterator.238", align 8
  %11 = alloca %"struct.std::_Rb_tree_const_iterator.238", align 8
  %12 = alloca i32, align 4
  %13 = alloca %"struct.std::_Rb_tree_iterator.241", align 8
  %14 = alloca i32, align 4
  %15 = alloca %"struct.std::_Rb_tree_iterator.241", align 8
  %16 = getelementptr inbounds nuw %"struct.std::_Rb_tree_iterator.241", ptr %6, i32 0, i32 0
  store ptr %1, ptr %16, align 8
  store ptr %0, ptr %7, align 8, !tbaa !484
  store i32 %2, ptr %8, align 4, !tbaa !89
  store i32 %3, ptr %9, align 4, !tbaa !89
  %17 = load ptr, ptr %7, align 8
  call void @llvm.lifetime.start.p0(i64 8, ptr %10) #3
  call void @_ZNSt23_Rb_tree_const_iteratorISt4pairIKjN5Yosys5RTLIL5ConstEEEC2ERKSt17_Rb_tree_iteratorIS5_E(ptr noundef nonnull align 8 dereferenceable(8) %10, ptr noundef nonnull align 8 dereferenceable(8) %6) #3
  call void @llvm.lifetime.start.p0(i64 8, ptr %11) #3
  %18 = getelementptr inbounds nuw %"class.Yosys::MemContents", ptr %17, i32 0, i32 3
  %19 = call ptr @_ZNKSt3mapIjN5Yosys5RTLIL5ConstESt4lessIjESaISt4pairIKjS2_EEE3endEv(ptr noundef nonnull align 8 dereferenceable(48) %18) #3
  %20 = getelementptr inbounds nuw %"struct.std::_Rb_tree_const_iterator.238", ptr %11, i32 0, i32 0
  store ptr %19, ptr %20, align 8
  %21 = call noundef zeroext i1 @_ZSteqRKSt23_Rb_tree_const_iteratorISt4pairIKjN5Yosys5RTLIL5ConstEEES8_(ptr noundef nonnull align 8 dereferenceable(8) %10, ptr noundef nonnull align 8 dereferenceable(8) %11) #3
  br i1 %21, label %26, label %22

22:                                               ; preds = %4
  %23 = load i32, ptr %8, align 4, !tbaa !89
  %24 = load i32, ptr %9, align 4, !tbaa !89
  %25 = icmp uge i32 %23, %24
  br label %26

26:                                               ; preds = %22, %4
  %27 = phi i1 [ true, %4 ], [ %25, %22 ]
  call void @llvm.lifetime.end.p0(i64 8, ptr %11) #3
  call void @llvm.lifetime.end.p0(i64 8, ptr %10) #3
  br i1 %27, label %28, label %29

28:                                               ; preds = %26
  store i1 false, ptr %5, align 1
  br label %48

29:                                               ; preds = %26
  call void @llvm.lifetime.start.p0(i64 4, ptr %12) #3
  call void @llvm.memcpy.p0.p0.i64(ptr align 8 %13, ptr align 8 %6, i64 8, i1 false), !tbaa.struct !209
  %30 = getelementptr inbounds nuw %"struct.std::_Rb_tree_iterator.241", ptr %13, i32 0, i32 0
  %31 = load ptr, ptr %30, align 8
  %32 = call noundef i32 @_ZNK5Yosys11MemContents10_range_endESt17_Rb_tree_iteratorISt4pairIKjNS_5RTLIL5ConstEEE(ptr noundef nonnull align 8 dereferenceable(96) %17, ptr %31)
  %33 = sub i32 %32, 1
  store i32 %33, ptr %12, align 4, !tbaa !89
  call void @llvm.lifetime.start.p0(i64 4, ptr %14) #3
  %34 = load i32, ptr %9, align 4, !tbaa !89
  %35 = sub i32 %34, 1
  store i32 %35, ptr %14, align 4, !tbaa !89
  %36 = load i32, ptr %12, align 4, !tbaa !89
  %37 = load i32, ptr %8, align 4, !tbaa !89
  %38 = icmp ult i32 %36, %37
  br i1 %38, label %45, label %39

39:                                               ; preds = %29
  %40 = load i32, ptr %14, align 4, !tbaa !89
  call void @llvm.memcpy.p0.p0.i64(ptr align 8 %15, ptr align 8 %6, i64 8, i1 false), !tbaa.struct !209
  %41 = getelementptr inbounds nuw %"struct.std::_Rb_tree_iterator.241", ptr %15, i32 0, i32 0
  %42 = load ptr, ptr %41, align 8
  %43 = call noundef i32 @_ZNK5Yosys11MemContents12_range_beginESt17_Rb_tree_iteratorISt4pairIKjNS_5RTLIL5ConstEEE(ptr noundef nonnull align 8 dereferenceable(96) %17, ptr %42)
  %44 = icmp ult i32 %40, %43
  br label %45

45:                                               ; preds = %39, %29
  %46 = phi i1 [ true, %29 ], [ %44, %39 ]
  %47 = xor i1 %46, true
  store i1 %47, ptr %5, align 1
  call void @llvm.lifetime.end.p0(i64 4, ptr %14) #3
  call void @llvm.lifetime.end.p0(i64 4, ptr %12) #3
  br label %48

48:                                               ; preds = %45, %28
  %49 = load i1, ptr %5, align 1
  ret i1 %49
}