; Function Attrs: mustprogress uwtable
define noundef zeroext i1 @_ZNK5Yosys11MemContents15_range_overlapsESt17_Rb_tree_iteratorISt4pairIKjNS_5RTLIL5ConstEEEjj(ptr noundef nonnull readonly align 8 captures(address) dereferenceable(96) %0, ptr %1, i32 noundef %2, i32 noundef %3) local_unnamed_addr #3 align 2 {
  %5 = getelementptr inbounds nuw i8, ptr %0, i64 56
  %6 = icmp eq ptr %1, %5
  %7 = icmp uge i32 %2, %3
  %8 = or i1 %6, %7
  br i1 %8, label %24, label %9

9:                                                ; preds = %4
  %10 = getelementptr inbounds nuw i8, ptr %1, i64 32
  %11 = load i32, ptr %10, align 8, !tbaa !593
  %12 = getelementptr inbounds nuw i8, ptr %1, i64 40
  %13 = tail call noundef i32 @_ZNK5Yosys5RTLIL5Const4sizeEv(ptr noundef nonnull align 8 dereferenceable(40) %12)
  %14 = getelementptr inbounds nuw i8, ptr %0, i64 4
  %15 = load i32, ptr %14, align 4, !tbaa !582
  %16 = sdiv i32 %13, %15
  %17 = add i32 %11, -1
  %18 = add i32 %17, %16
  %19 = icmp ult i32 %18, %2
  br i1 %19, label %24, label %20

20:                                               ; preds = %9
  %21 = add i32 %3, -1
  %22 = load i32, ptr %10, align 8, !tbaa !593
  %23 = icmp uge i32 %21, %22
  br label %24

24:                                               ; preds = %9, %20, %4
  %.0 = phi i1 [ false, %4 ], [ false, %9 ], [ %23, %20 ]
  ret i1 %.0
}